target datalayout = "e-m:e-p270:32:32-p271:32:32-p272:64:64-i64:64-i128:128-f80:128-n8:16:32:64-S128"
target triple = "x86_64-pc-linux-gnu"

%struct._packet_info = type { ptr, ptr, i32, i32, %struct.nstime_t, %struct.nstime_t, %struct.nstime_t, i8, ptr, ptr, ptr, ptr, %struct._address, %struct._address, %struct._address, %struct._address, %struct._address, %struct._address, i32, ptr, i8, [3 x i8], %struct.anon, i32, i32, i32, i32, ptr, i8, ptr, ptr, i16, i16, i32, i32, i16, i32, i32, ptr, ptr, ptr, i8, i8, i16, i16, i16, i32, i16, i16, ptr, ptr, ptr, ptr, ptr, i32, i32 }
%struct.nstime_t = type { i64, i32 }
%struct._address = type { i32, i32, ptr, ptr }
%struct.anon = type { i8, [3 x i8] }

; Function Attrs: null_pointer_is_valid sspstrong uwtable
define internal i32 @get_mrcpv2_pdu_len(ptr noundef %0, ptr noundef %1, i32 noundef %2, ptr noundef %3) #0 {
  %5 = alloca i32, align 4
  %6 = alloca ptr, align 8
  %7 = alloca ptr, align 8
  %8 = alloca i32, align 4
  %9 = alloca ptr, align 8
  %10 = alloca i32, align 4
  %11 = alloca i32, align 4
  %12 = alloca ptr, align 8
  %13 = alloca i32, align 4
  %14 = alloca i32, align 4
  store ptr %0, ptr %6, align 8
  store ptr %1, ptr %7, align 8
  store i32 %2, ptr %8, align 4
  store ptr %3, ptr %9, align 8
  call void @llvm.lifetime.start.p0(i64 4, ptr %10) #4
  call void @llvm.lifetime.start.p0(i64 4, ptr %11) #4
  call void @llvm.lifetime.start.p0(i64 8, ptr %12) #4
  call void @llvm.lifetime.start.p0(i64 4, ptr %13) #4
  store i32 0, ptr %13, align 4
  %15 = load ptr, ptr %7, align 8
  %16 = load i32, ptr %8, align 4
  %17 = call i32 @tvb_find_uint8(ptr noundef %15, i32 noundef %16, i32 noundef 30, i8 noundef zeroext 32)
  store i32 %17, ptr %10, align 4
  %18 = load i32, ptr %10, align 4
  %19 = icmp eq i32 %18, -1
  br i1 %19, label %20, label %21

20:                                               ; preds = %4
  store i32 0, ptr %5, align 4
  store i32 1, ptr %14, align 4
  br label %54

21:                                               ; preds = %4
  %22 = load i32, ptr %10, align 4
  %23 = add i32 %22, 1
  store i32 %23, ptr %10, align 4
  %24 = load ptr, ptr %7, align 8
  %25 = load i32, ptr %10, align 4
  %26 = load i32, ptr %10, align 4
  %27 = sub i32 30, %26
  %28 = call i32 @tvb_find_uint8(ptr noundef %24, i32 noundef %25, i32 noundef %27, i8 noundef zeroext 32)
  store i32 %28, ptr %11, align 4
  %29 = load i32, ptr %11, align 4
  %30 = icmp eq i32 %29, -1
  br i1 %30, label %31, label %40

31:                                               ; preds = %21
  %32 = load ptr, ptr %6, align 8
  %33 = getelementptr inbounds nuw %struct._packet_info, ptr %32, i32 0, i32 51
  %34 = load ptr, ptr %33, align 8
  %35 = load ptr, ptr %7, align 8
  %36 = load i32, ptr %10, align 4
  %37 = load i32, ptr %10, align 4
  %38 = sub i32 30, %37
  %39 = call ptr @tvb_get_string_enc(ptr noundef %34, ptr noundef %35, i32 noundef %36, i32 noundef %38, i32 noundef 0)
  store ptr %39, ptr %12, align 8
  br label %50

40:                                               ; preds = %21
  %41 = load ptr, ptr %6, align 8
  %42 = getelementptr inbounds nuw %struct._packet_info, ptr %41, i32 0, i32 51
  %43 = load ptr, ptr %42, align 8
  %44 = load ptr, ptr %7, align 8
  %45 = load i32, ptr %10, align 4
  %46 = load i32, ptr %11, align 4
  %47 = load i32, ptr %10, align 4
  %48 = sub i32 %46, %47
  %49 = call ptr @tvb_get_string_enc(ptr noundef %43, ptr noundef %44, i32 noundef %45, i32 noundef %48, i32 noundef 0)
  store ptr %49, ptr %12, align 8
  br label %50

50:                                               ; preds = %40, %31
  %51 = load ptr, ptr %12, align 8
  %52 = call zeroext i1 @ws_strtou32(ptr noundef %51, ptr noundef null, ptr noundef %13)
  %53 = load i32, ptr %13, align 4
  store i32 %53, ptr %5, align 4
  store i32 1, ptr %14, align 4
  br label %54

54:                                               ; preds = %50, %20
  call void @llvm.lifetime.end.p0(i64 4, ptr %13) #4
  call void @llvm.lifetime.end.p0(i64 8, ptr %12) #4
  call void @llvm.lifetime.end.p0(i64 4, ptr %11) #4
  call void @llvm.lifetime.end.p0(i64 4, ptr %10) #4
  %55 = load i32, ptr %5, align 4
  ret i32 %55
}