; Function Attrs: null_pointer_is_valid sspstrong uwtable
define internal i32 @get_mrcpv2_pdu_len(ptr noundef readonly captures(none) %0, ptr noundef %1, i32 noundef %2, ptr readnone captures(none) %3) #0 {
  %5 = alloca i32, align 4
  call void @llvm.lifetime.start.p0(i64 4, ptr nonnull %5) #4
  store i32 0, ptr %5, align 4
  %6 = tail call i32 @tvb_find_uint8(ptr noundef %1, i32 noundef %2, i32 noundef 30, i8 noundef zeroext 32)
  %7 = icmp eq i32 %6, -1
  br i1 %7, label %19, label %8

8:                                                ; preds = %4
  %9 = add nuw i32 %6, 1
  %10 = sub i32 29, %6
  %11 = tail call i32 @tvb_find_uint8(ptr noundef %1, i32 noundef %9, i32 noundef %10, i8 noundef zeroext 32)
  %12 = icmp eq i32 %11, -1
  %13 = getelementptr inbounds nuw i8, ptr %0, i64 408
  %14 = load ptr, ptr %13, align 8
  %15 = sub i32 %11, %9
  %.sink = select i1 %12, i32 %10, i32 %15
  %16 = tail call ptr @tvb_get_string_enc(ptr noundef %14, ptr noundef %1, i32 noundef %9, i32 noundef %.sink, i32 noundef 0)
  %17 = call zeroext i1 @ws_strtou32(ptr noundef %16, ptr noundef null, ptr noundef nonnull %5)
  %18 = load i32, ptr %5, align 4
  br label %19

19:                                               ; preds = %4, %8
  %.018 = phi i32 [ %18, %8 ], [ 0, %4 ]
  call void @llvm.lifetime.end.p0(i64 4, ptr nonnull %5) #4
  ret i32 %.018
}